; Function Attrs: nofree norecurse nosync nounwind memory(argmem: read) uwtable
define hidden range(i64 0, 2305843009213693952) i64 @nghttp2_hd_huff_encode_count(ptr noundef readonly captures(none) %0, i64 noundef %1) local_unnamed_addr #0 {
  %.not = icmp eq i64 %1, 0
  br i1 %.not, label %._crit_edge, label %.lr.ph

.lr.ph:                                           ; preds = %2, %.lr.ph
  %.08 = phi i64 [ %9, %.lr.ph ], [ 0, %2 ]
  %.067 = phi i64 [ %10, %.lr.ph ], [ 0, %2 ]
  %3 = getelementptr inbounds nuw i8, ptr %0, i64 %.067
  %4 = load i8, ptr %3, align 1, !tbaa !3
  %5 = zext i8 %4 to i64
  %6 = getelementptr inbounds nuw [0 x %struct.nghttp2_huff_sym], ptr @huff_sym_table, i64 0, i64 %5
  %7 = load i32, ptr %6, align 4, !tbaa !6
  %8 = zext i32 %7 to i64
  %9 = add i64 %.08, %8
  %10 = add nuw i64 %.067, 1
  %exitcond.not = icmp eq i64 %10, %1
  br i1 %exitcond.not, label %._crit_edge.loopexit, label %.lr.ph, !llvm.loop !9

._crit_edge.loopexit:                             ; preds = %.lr.ph
  %11 = add i64 %9, 7
  %12 = lshr i64 %11, 3
  br label %._crit_edge

._crit_edge:                                      ; preds = %._crit_edge.loopexit, %2
  %.0.lcssa = phi i64 [ 0, %2 ], [ %12, %._crit_edge.loopexit ]
  ret i64 %.0.lcssa
}